target datalayout = "e-m:e-p270:32:32-p271:32:32-p272:64:64-i64:64-i128:128-f80:128-n8:16:32:64-S128"
target triple = "x86_64-pc-linux-gnu"

%struct.mbedtls_mpi = type { i32, i64, ptr }

; Function Attrs: mustprogress uwtable
define internal void @_ZL19mbedtls_mpi_zeroizePmm(ptr noundef %0, i64 noundef %1) #1 {
  %3 = alloca ptr, align 8
  %4 = alloca i64, align 8
  store ptr %0, ptr %3, align 8, !tbaa !15
  store i64 %1, ptr %4, align 8, !tbaa !16
  %5 = load ptr, ptr %3, align 8, !tbaa !15
  %6 = load i64, ptr %4, align 8, !tbaa !16
  %7 = mul i64 8, %6
  call void @mbedtls_platform_zeroize(ptr noundef %5, i64 noundef %7)
  ret void
}

; Function Attrs: mustprogress uwtable
define hidden void @mbedtls_mpi_free(ptr noundef %0) #1 {
  %2 = alloca ptr, align 8
  store ptr %0, ptr %2, align 8, !tbaa !3
  %3 = load ptr, ptr %2, align 8, !tbaa !3
  %4 = icmp eq ptr %3, null
  br i1 %4, label %5, label %6

5:                                                ; preds = %1
  br label %28

6:                                                ; preds = %1
  %7 = load ptr, ptr %2, align 8, !tbaa !3
  %8 = getelementptr inbounds nuw %struct.mbedtls_mpi, ptr %7, i32 0, i32 2
  %9 = load ptr, ptr %8, align 8, !tbaa !14
  %10 = icmp ne ptr %9, null
  br i1 %10, label %11, label %21

11:                                               ; preds = %6
  %12 = load ptr, ptr %2, align 8, !tbaa !3
  %13 = getelementptr inbounds nuw %struct.mbedtls_mpi, ptr %12, i32 0, i32 2
  %14 = load ptr, ptr %13, align 8, !tbaa !14
  %15 = load ptr, ptr %2, align 8, !tbaa !3
  %16 = getelementptr inbounds nuw %struct.mbedtls_mpi, ptr %15, i32 0, i32 1
  %17 = load i64, ptr %16, align 8, !tbaa !13
  call void @_ZL19mbedtls_mpi_zeroizePmm(ptr noundef %14, i64 noundef %17)
  %18 = load ptr, ptr %2, align 8, !tbaa !3
  %19 = getelementptr inbounds nuw %struct.mbedtls_mpi, ptr %18, i32 0, i32 2
  %20 = load ptr, ptr %19, align 8, !tbaa !14
  call void @free(ptr noundef %20) #10
  br label %21

21:                                               ; preds = %11, %6
  %22 = load ptr, ptr %2, align 8, !tbaa !3
  %23 = getelementptr inbounds nuw %struct.mbedtls_mpi, ptr %22, i32 0, i32 0
  store i32 1, ptr %23, align 8, !tbaa !8
  %24 = load ptr, ptr %2, align 8, !tbaa !3
  %25 = getelementptr inbounds nuw %struct.mbedtls_mpi, ptr %24, i32 0, i32 1
  store i64 0, ptr %25, align 8, !tbaa !13
  %26 = load ptr, ptr %2, align 8, !tbaa !3
  %27 = getelementptr inbounds nuw %struct.mbedtls_mpi, ptr %26, i32 0, i32 2
  store ptr null, ptr %27, align 8, !tbaa !14
  br label %28

28:                                               ; preds = %21, %5
  ret void
}