; Function Attrs: mustprogress uwtable
define hidden void @mbedtls_mpi_free(ptr noundef captures(address_is_null) %0) local_unnamed_addr #1 {
  %2 = icmp eq ptr %0, null
  br i1 %2, label %13, label %3

3:                                                ; preds = %1
  %4 = getelementptr inbounds nuw i8, ptr %0, i64 16
  %5 = load ptr, ptr %4, align 8, !tbaa !11
  %.not = icmp eq ptr %5, null
  br i1 %.not, label %11, label %6

6:                                                ; preds = %3
  %7 = getelementptr inbounds nuw i8, ptr %0, i64 8
  %8 = load i64, ptr %7, align 8, !tbaa !12
  %9 = shl i64 %8, 3
  tail call void @mbedtls_platform_zeroize(ptr noundef nonnull %5, i64 noundef %9)
  %10 = load ptr, ptr %4, align 8, !tbaa !11
  tail call void @free(ptr noundef %10) #15
  br label %11

11:                                               ; preds = %6, %3
  store i32 1, ptr %0, align 8, !tbaa !3
  %12 = getelementptr inbounds nuw i8, ptr %0, i64 8
  tail call void @llvm.memset.p0.i64(ptr noundef nonnull align 8 dereferenceable(16) %12, i8 0, i64 16, i1 false)
  br label %13

13:                                               ; preds = %1, %11
  ret void
}